target datalayout = "e-m:e-p270:32:32-p271:32:32-p272:64:64-i64:64-i128:128-f80:128-n8:16:32:64-S128"
target triple = "x86_64-unknown-linux-gnu"

%"class.icu_75::UObject" = type { ptr }
%"class.icu_75::UnicodeSet" = type <{ %"class.icu_75::UnicodeFilter", ptr, i32, i32, i8, [7 x i8], ptr, ptr, i32, [4 x i8], ptr, i32, [4 x i8], ptr, ptr, [25 x i32], [4 x i8] }>
%"class.icu_75::UnicodeFilter" = type { %"class.icu_75::UnicodeFunctor", %"class.icu_75::UnicodeMatcher" }
%"class.icu_75::UnicodeFunctor" = type { %"class.icu_75::UObject" }
%"class.icu_75::UnicodeMatcher" = type { ptr }
%"struct.icu_75::(anonymous namespace)::IntPropertyContext" = type { i32, i32 }

; Function Attrs: mustprogress nounwind uwtable
define linkonce_odr noundef ptr @_ZN6icu_7510UnicodeSet8fromUSetEPK4USet(ptr noundef %uset) #0 comdat align 2 {
entry:
  %uset.addr = alloca ptr, align 8
  store ptr %uset, ptr %uset.addr, align 8
  %0 = load ptr, ptr %uset.addr, align 8
  ret ptr %0
}

; Function Attrs: mustprogress nounwind uwtable
define linkonce_odr noundef signext i8 @_ZNK6icu_7510UnicodeSet8isFrozenEv(ptr noundef nonnull align 8 dereferenceable(200) %this) #0 comdat align 2 {
entry:
  %this.addr = alloca ptr, align 8
  store ptr %this, ptr %this.addr, align 8
  %this1 = load ptr, ptr %this.addr, align 8
  %bmpSet = getelementptr inbounds %"class.icu_75::UnicodeSet", ptr %this1, i32 0, i32 6
  %0 = load ptr, ptr %bmpSet, align 8
  %cmp = icmp ne ptr %0, null
  br i1 %cmp, label %lor.end, label %lor.rhs

lor.rhs:                                          ; preds = %entry
  %stringSpan = getelementptr inbounds %"class.icu_75::UnicodeSet", ptr %this1, i32 0, i32 14
  %1 = load ptr, ptr %stringSpan, align 8
  %cmp2 = icmp ne ptr %1, null
  br label %lor.end

lor.end:                                          ; preds = %lor.rhs, %entry
  %2 = phi i1 [ true, %entry ], [ %cmp2, %lor.rhs ]
  %conv = zext i1 %2 to i8
  ret i8 %conv
}

; Function Attrs: mustprogress nounwind uwtable
define internal noundef signext i8 @_ZL9U_FAILURE10UErrorCode(i32 noundef %code) #0 {
entry:
  %code.addr = alloca i32, align 4
  store i32 %code, ptr %code.addr, align 4
  %0 = load i32, ptr %code.addr, align 4
  %cmp = icmp sgt i32 %0, 0
  %conv = zext i1 %cmp to i8
  ret i8 %conv
}

; Function Attrs: mustprogress uwtable
define noundef nonnull align 8 dereferenceable(200) ptr @_ZN6icu_7510UnicodeSet21applyIntPropertyValueE9UPropertyiR10UErrorCode(ptr noundef nonnull align 8 dereferenceable(200) %this, i32 noundef %prop, i32 noundef %value, ptr noundef nonnull align 4 dereferenceable(4) %ec) #1 align 2 {
entry:
  %retval = alloca ptr, align 8
  %this.addr = alloca ptr, align 8
  %prop.addr = alloca i32, align 4
  %value.addr = alloca i32, align 4
  %ec.addr = alloca ptr, align 8
  %inclusions = alloca ptr, align 8
  %inclusions8 = alloca ptr, align 8
  %script = alloca i32, align 4
  %set = alloca ptr, align 8
  %inclusions38 = alloca ptr, align 8
  %c = alloca %"struct.icu_75::(anonymous namespace)::IntPropertyContext", align 4
  store ptr %this, ptr %this.addr, align 8
  store i32 %prop, ptr %prop.addr, align 4
  store i32 %value, ptr %value.addr, align 4
  store ptr %ec, ptr %ec.addr, align 8
  %this1 = load ptr, ptr %this.addr, align 8
  %0 = load ptr, ptr %ec.addr, align 8
  %1 = load i32, ptr %0, align 4
  %call = call noundef signext i8 @_ZL9U_FAILURE10UErrorCode(i32 noundef %1)
  %tobool = icmp ne i8 %call, 0
  br i1 %tobool, label %if.then, label %lor.lhs.false

lor.lhs.false:                                    ; preds = %entry
  %call2 = call noundef signext i8 @_ZNK6icu_7510UnicodeSet8isFrozenEv(ptr noundef nonnull align 8 dereferenceable(200) %this1)
  %tobool3 = icmp ne i8 %call2, 0
  br i1 %tobool3, label %if.then, label %if.end

if.then:                                          ; preds = %lor.lhs.false, %entry
  store ptr %this1, ptr %retval, align 8
  br label %return

if.end:                                           ; preds = %lor.lhs.false
  %2 = load i32, ptr %prop.addr, align 4
  %cmp = icmp eq i32 %2, 8192
  br i1 %cmp, label %if.then4, label %if.else

if.then4:                                         ; preds = %if.end
  %3 = load i32, ptr %prop.addr, align 4
  %4 = load ptr, ptr %ec.addr, align 8
  %call5 = call noundef ptr @_ZN6icu_7519CharacterProperties24getInclusionsForPropertyE9UPropertyR10UErrorCode(i32 noundef %3, ptr noundef nonnull align 4 dereferenceable(4) %4)
  store ptr %call5, ptr %inclusions, align 8
  %5 = load ptr, ptr %inclusions, align 8
  %6 = load ptr, ptr %ec.addr, align 8
  call void @_ZN6icu_7510UnicodeSet11applyFilterEPFaiPvES1_PKS0_R10UErrorCode(ptr noundef nonnull align 8 dereferenceable(200) %this1, ptr noundef @_ZN6icu_7512_GLOBAL__N_125generalCategoryMaskFilterEiPv, ptr noundef %value.addr, ptr noundef %5, ptr noundef nonnull align 4 dereferenceable(4) %6)
  br label %if.end46

if.else:                                          ; preds = %if.end
  %7 = load i32, ptr %prop.addr, align 4
  %cmp6 = icmp eq i32 %7, 28672
  br i1 %cmp6, label %if.then7, label %if.else10

if.then7:                                         ; preds = %if.else
  %8 = load i32, ptr %prop.addr, align 4
  %9 = load ptr, ptr %ec.addr, align 8
  %call9 = call noundef ptr @_ZN6icu_7519CharacterProperties24getInclusionsForPropertyE9UPropertyR10UErrorCode(i32 noundef %8, ptr noundef nonnull align 4 dereferenceable(4) %9)
  store ptr %call9, ptr %inclusions8, align 8
  %10 = load i32, ptr %value.addr, align 4
  store i32 %10, ptr %script, align 4
  %11 = load ptr, ptr %inclusions8, align 8
  %12 = load ptr, ptr %ec.addr, align 8
  call void @_ZN6icu_7510UnicodeSet11applyFilterEPFaiPvES1_PKS0_R10UErrorCode(ptr noundef nonnull align 8 dereferenceable(200) %this1, ptr noundef @_ZN6icu_7512_GLOBAL__N_122scriptExtensionsFilterEiPv, ptr noundef %script, ptr noundef %11, ptr noundef nonnull align 4 dereferenceable(4) %12)
  br label %if.end45

if.else10:                                        ; preds = %if.else
  %13 = load i32, ptr %prop.addr, align 4
  %cmp11 = icmp sle i32 0, %13
  br i1 %cmp11, label %land.lhs.true, label %if.else33

land.lhs.true:                                    ; preds = %if.else10
  %14 = load i32, ptr %prop.addr, align 4
  %cmp12 = icmp slt i32 %14, 75
  br i1 %cmp12, label %if.then13, label %if.else33

if.then13:                                        ; preds = %land.lhs.true
  %15 = load i32, ptr %value.addr, align 4
  %cmp14 = icmp eq i32 %15, 0
  br i1 %cmp14, label %if.then17, label %lor.lhs.false15

lor.lhs.false15:                                  ; preds = %if.then13
  %16 = load i32, ptr %value.addr, align 4
  %cmp16 = icmp eq i32 %16, 1
  br i1 %cmp16, label %if.then17, label %if.else30

if.then17:                                        ; preds = %lor.lhs.false15, %if.then13
  %17 = load i32, ptr %prop.addr, align 4
  %18 = load ptr, ptr %ec.addr, align 8
  %call18 = call ptr @u_getBinaryPropertySet_75(i32 noundef %17, ptr noundef %18)
  store ptr %call18, ptr %set, align 8
  %19 = load ptr, ptr %ec.addr, align 8
  %20 = load i32, ptr %19, align 4
  %call19 = call noundef signext i8 @_ZL9U_FAILURE10UErrorCode(i32 noundef %20)
  %tobool20 = icmp ne i8 %call19, 0
  br i1 %tobool20, label %if.then21, label %if.end22

if.then21:                                        ; preds = %if.then17
  store ptr %this1, ptr %retval, align 8
  br label %return

if.end22:                                         ; preds = %if.then17
  %21 = load ptr, ptr %set, align 8
  %call23 = call noundef ptr @_ZN6icu_7510UnicodeSet8fromUSetEPK4USet(ptr noundef %21)
  %call24 = call noundef nonnull align 8 dereferenceable(200) ptr @_ZN6icu_7510UnicodeSet8copyFromERKS0_a(ptr noundef nonnull align 8 dereferenceable(200) %this1, ptr noundef nonnull align 8 dereferenceable(200) %call23, i8 noundef signext 1)
  %22 = load i32, ptr %value.addr, align 4
  %cmp25 = icmp eq i32 %22, 0
  br i1 %cmp25, label %if.then26, label %if.end29

if.then26:                                        ; preds = %if.end22
  %call27 = call noundef nonnull align 8 dereferenceable(200) ptr @_ZN6icu_7510UnicodeSet10complementEv(ptr noundef nonnull align 8 dereferenceable(200) %this1)
  %call28 = call noundef nonnull align 8 dereferenceable(200) ptr @_ZN6icu_7510UnicodeSet16removeAllStringsEv(ptr noundef nonnull align 8 dereferenceable(200) %call27)
  br label %if.end29

if.end29:                                         ; preds = %if.then26, %if.end22
  br label %if.end32

if.else30:                                        ; preds = %lor.lhs.false15
  %call31 = call noundef nonnull align 8 dereferenceable(200) ptr @_ZN6icu_7510UnicodeSet5clearEv(ptr noundef nonnull align 8 dereferenceable(200) %this1)
  br label %if.end32

if.end32:                                         ; preds = %if.else30, %if.end29
  br label %if.end44

if.else33:                                        ; preds = %land.lhs.true, %if.else10
  %23 = load i32, ptr %prop.addr, align 4
  %cmp34 = icmp sle i32 4096, %23
  br i1 %cmp34, label %land.lhs.true35, label %if.else42

land.lhs.true35:                                  ; preds = %if.else33
  %24 = load i32, ptr %prop.addr, align 4
  %cmp36 = icmp slt i32 %24, 4121
  br i1 %cmp36, label %if.then37, label %if.else42

if.then37:                                        ; preds = %land.lhs.true35
  %25 = load i32, ptr %prop.addr, align 4
  %26 = load ptr, ptr %ec.addr, align 8
  %call39 = call noundef ptr @_ZN6icu_7519CharacterProperties24getInclusionsForPropertyE9UPropertyR10UErrorCode(i32 noundef %25, ptr noundef nonnull align 4 dereferenceable(4) %26)
  store ptr %call39, ptr %inclusions38, align 8
  %prop40 = getelementptr inbounds %"struct.icu_75::(anonymous namespace)::IntPropertyContext", ptr %c, i32 0, i32 0
  %27 = load i32, ptr %prop.addr, align 4
  store i32 %27, ptr %prop40, align 4
  %value41 = getelementptr inbounds %"struct.icu_75::(anonymous namespace)::IntPropertyContext", ptr %c, i32 0, i32 1
  %28 = load i32, ptr %value.addr, align 4
  store i32 %28, ptr %value41, align 4
  %29 = load ptr, ptr %inclusions38, align 8
  %30 = load ptr, ptr %ec.addr, align 8
  call void @_ZN6icu_7510UnicodeSet11applyFilterEPFaiPvES1_PKS0_R10UErrorCode(ptr noundef nonnull align 8 dereferenceable(200) %this1, ptr noundef @_ZN6icu_7512_GLOBAL__N_117intPropertyFilterEiPv, ptr noundef %c, ptr noundef %29, ptr noundef nonnull align 4 dereferenceable(4) %30)
  br label %if.end43

if.else42:                                        ; preds = %land.lhs.true35, %if.else33
  %31 = load ptr, ptr %ec.addr, align 8
  store i32 1, ptr %31, align 4
  br label %if.end43

if.end43:                                         ; preds = %if.else42, %if.then37
  br label %if.end44

if.end44:                                         ; preds = %if.end43, %if.end32
  br label %if.end45

if.end45:                                         ; preds = %if.end44, %if.then7
  br label %if.end46

if.end46:                                         ; preds = %if.end45, %if.then4
  store ptr %this1, ptr %retval, align 8
  br label %return

return:                                           ; preds = %if.end46, %if.then21, %if.then
  %32 = load ptr, ptr %retval, align 8
  ret ptr %32
}