; Function Attrs: mustprogress uwtable
define noundef nonnull align 8 dereferenceable(200) ptr @_ZN6icu_7510UnicodeSet21applyIntPropertyValueE9UPropertyiR10UErrorCode(ptr noundef nonnull returned align 8 dereferenceable(200) %this, i32 noundef %prop, i32 noundef %value, ptr noundef nonnull align 4 dereferenceable(4) %ec) local_unnamed_addr #1 align 2 {
entry:
  %c = alloca %"struct.icu_75::(anonymous namespace)::IntPropertyContext", align 4
  %0 = load i32, ptr %ec, align 4
  %cmp.i = icmp slt i32 %0, 1
  br i1 %cmp.i, label %lor.lhs.false, label %return

lor.lhs.false:                                    ; preds = %entry
  %bmpSet.i = getelementptr inbounds i8, ptr %this, i64 40
  %1 = load ptr, ptr %bmpSet.i, align 8
  %cmp.not.i = icmp eq ptr %1, null
  %stringSpan.i = getelementptr inbounds i8, ptr %this, i64 88
  %2 = load ptr, ptr %stringSpan.i, align 8
  %cmp2.i = icmp eq ptr %2, null
  %narrow.i.not = select i1 %cmp.not.i, i1 %cmp2.i, i1 false
  br i1 %narrow.i.not, label %if.end, label %return

if.end:                                           ; preds = %lor.lhs.false
  switch i32 %prop, label %if.else10 [
    i32 8192, label %if.then4
    i32 28672, label %if.then7
  ]

if.then4:                                         ; preds = %if.end
  %call5 = tail call noundef ptr @_ZN6icu_7519CharacterProperties24getInclusionsForPropertyE9UPropertyR10UErrorCode(i32 noundef 8192, ptr noundef nonnull align 4 dereferenceable(4) %ec)
  %3 = load i32, ptr %ec, align 4
  %cmp.i.i = icmp slt i32 %3, 1
  br i1 %cmp.i.i, label %if.end.i, label %return

if.end.i:                                         ; preds = %if.then4
  %call2.i = tail call noundef nonnull align 8 dereferenceable(200) ptr @_ZN6icu_7510UnicodeSet5clearEv(ptr noundef nonnull align 8 dereferenceable(200) %this)
  %call3.i = tail call noundef i32 @_ZNK6icu_7510UnicodeSet13getRangeCountEv(ptr noundef nonnull align 8 dereferenceable(200) %call5)
  %cmp21.i = icmp sgt i32 %call3.i, 0
  br i1 %cmp21.i, label %for.body.i, label %if.end26.i

for.body.i:                                       ; preds = %if.end.i, %for.inc20.i
  %startHasProperty.023.i = phi i32 [ %startHasProperty.1.lcssa.i, %for.inc20.i ], [ -1, %if.end.i ]
  %j.022.i = phi i32 [ %inc21.i, %for.inc20.i ], [ 0, %if.end.i ]
  %call4.i = tail call noundef i32 @_ZNK6icu_7510UnicodeSet13getRangeStartEi(ptr noundef nonnull align 8 dereferenceable(200) %call5, i32 noundef %j.022.i)
  %call5.i = tail call noundef i32 @_ZNK6icu_7510UnicodeSet11getRangeEndEi(ptr noundef nonnull align 8 dereferenceable(200) %call5, i32 noundef %j.022.i)
  %cmp7.not18.i = icmp sgt i32 %call4.i, %call5.i
  br i1 %cmp7.not18.i, label %for.inc20.i, label %for.body8.i

for.body8.i:                                      ; preds = %for.body.i, %for.inc.i
  %ch.020.i = phi i32 [ %inc.i, %for.inc.i ], [ %call4.i, %for.body.i ]
  %startHasProperty.119.i = phi i32 [ %startHasProperty.2.i, %for.inc.i ], [ %startHasProperty.023.i, %for.body.i ]
  %call.i = tail call signext i8 @u_charType_75(i32 noundef %ch.020.i)
  %conv2.i = zext nneg i8 %call.i to i32
  %shl.i = shl nuw i32 1, %conv2.i
  %and.i = and i32 %shl.i, %value
  %cmp.i68.not = icmp eq i32 %and.i, 0
  br i1 %cmp.i68.not, label %if.else.i, label %if.then11.i

if.then11.i:                                      ; preds = %for.body8.i
  %cmp12.i = icmp slt i32 %startHasProperty.119.i, 0
  %spec.select.i = select i1 %cmp12.i, i32 %ch.020.i, i32 %startHasProperty.119.i
  br label %for.inc.i

if.else.i:                                        ; preds = %for.body8.i
  %cmp15.i = icmp sgt i32 %startHasProperty.119.i, -1
  br i1 %cmp15.i, label %if.then16.i, label %for.inc.i

if.then16.i:                                      ; preds = %if.else.i
  %sub.i = add nsw i32 %ch.020.i, -1
  %call17.i = tail call noundef nonnull align 8 dereferenceable(200) ptr @_ZN6icu_7510UnicodeSet3addEii(ptr noundef nonnull align 8 dereferenceable(200) %this, i32 noundef %startHasProperty.119.i, i32 noundef %sub.i)
  br label %for.inc.i

for.inc.i:                                        ; preds = %if.then16.i, %if.else.i, %if.then11.i
  %startHasProperty.2.i = phi i32 [ -1, %if.then16.i ], [ %startHasProperty.119.i, %if.else.i ], [ %spec.select.i, %if.then11.i ]
  %inc.i = add i32 %ch.020.i, 1
  %exitcond.not.i = icmp eq i32 %ch.020.i, %call5.i
  br i1 %exitcond.not.i, label %for.inc20.i, label %for.body8.i, !llvm.loop !10

for.inc20.i:                                      ; preds = %for.inc.i, %for.body.i
  %startHasProperty.1.lcssa.i = phi i32 [ %startHasProperty.023.i, %for.body.i ], [ %startHasProperty.2.i, %for.inc.i ]
  %inc21.i = add nuw nsw i32 %j.022.i, 1
  %exitcond25.not.i = icmp eq i32 %inc21.i, %call3.i
  br i1 %exitcond25.not.i, label %for.end22.i, label %for.body.i, !llvm.loop !11

for.end22.i:                                      ; preds = %for.inc20.i
  %cmp23.i = icmp sgt i32 %startHasProperty.1.lcssa.i, -1
  br i1 %cmp23.i, label %if.then24.i, label %if.end26.i

if.then24.i:                                      ; preds = %for.end22.i
  %call25.i = tail call noundef nonnull align 8 dereferenceable(200) ptr @_ZN6icu_7510UnicodeSet3addEii(ptr noundef nonnull align 8 dereferenceable(200) %this, i32 noundef %startHasProperty.1.lcssa.i, i32 noundef 1114111)
  br label %if.end26.i

if.end26.i:                                       ; preds = %if.then24.i, %for.end22.i, %if.end.i
  %fFlags.i.i = getelementptr inbounds i8, ptr %this, i64 32
  %4 = load i8, ptr %fFlags.i.i, align 8
  %5 = and i8 %4, 1
  %tobool28.not.i = icmp eq i8 %5, 0
  %6 = load i32, ptr %ec, align 4
  %cmp.i16.i = icmp sgt i32 %6, 0
  %or.cond.i = select i1 %tobool28.not.i, i1 true, i1 %cmp.i16.i
  br i1 %or.cond.i, label %return, label %if.then31.i

if.then31.i:                                      ; preds = %if.end26.i
  store i32 7, ptr %ec, align 4
  br label %return

if.then7:                                         ; preds = %if.end
  %call9 = tail call noundef ptr @_ZN6icu_7519CharacterProperties24getInclusionsForPropertyE9UPropertyR10UErrorCode(i32 noundef 28672, ptr noundef nonnull align 4 dereferenceable(4) %ec)
  %7 = load i32, ptr %ec, align 4
  %cmp.i.i23 = icmp slt i32 %7, 1
  br i1 %cmp.i.i23, label %if.end.i24, label %return

if.end.i24:                                       ; preds = %if.then7
  %call2.i25 = tail call noundef nonnull align 8 dereferenceable(200) ptr @_ZN6icu_7510UnicodeSet5clearEv(ptr noundef nonnull align 8 dereferenceable(200) %this)
  %call3.i26 = tail call noundef i32 @_ZNK6icu_7510UnicodeSet13getRangeCountEv(ptr noundef nonnull align 8 dereferenceable(200) %call9)
  %cmp21.i27 = icmp sgt i32 %call3.i26, 0
  br i1 %cmp21.i27, label %for.body.i34, label %if.end26.i28

for.body.i34:                                     ; preds = %if.end.i24, %for.inc20.i52
  %startHasProperty.023.i35 = phi i32 [ %startHasProperty.1.lcssa.i53, %for.inc20.i52 ], [ -1, %if.end.i24 ]
  %j.022.i36 = phi i32 [ %inc21.i54, %for.inc20.i52 ], [ 0, %if.end.i24 ]
  %call4.i37 = tail call noundef i32 @_ZNK6icu_7510UnicodeSet13getRangeStartEi(ptr noundef nonnull align 8 dereferenceable(200) %call9, i32 noundef %j.022.i36)
  %call5.i38 = tail call noundef i32 @_ZNK6icu_7510UnicodeSet11getRangeEndEi(ptr noundef nonnull align 8 dereferenceable(200) %call9, i32 noundef %j.022.i36)
  %cmp7.not18.i39 = icmp sgt i32 %call4.i37, %call5.i38
  br i1 %cmp7.not18.i39, label %for.inc20.i52, label %for.body8.i40

for.body8.i40:                                    ; preds = %for.body.i34, %for.inc.i48
  %ch.020.i41 = phi i32 [ %inc.i50, %for.inc.i48 ], [ %call4.i37, %for.body.i34 ]
  %startHasProperty.119.i42 = phi i32 [ %startHasProperty.2.i49, %for.inc.i48 ], [ %startHasProperty.023.i35, %for.body.i34 ]
  %call.i69 = tail call noundef signext i8 @uscript_hasScript_75(i32 noundef %ch.020.i41, i32 noundef %value)
  %tobool10.not.i44 = icmp eq i8 %call.i69, 0
  br i1 %tobool10.not.i44, label %if.else.i60, label %if.then11.i45

if.then11.i45:                                    ; preds = %for.body8.i40
  %cmp12.i46 = icmp slt i32 %startHasProperty.119.i42, 0
  %spec.select.i47 = select i1 %cmp12.i46, i32 %ch.020.i41, i32 %startHasProperty.119.i42
  br label %for.inc.i48

if.else.i60:                                      ; preds = %for.body8.i40
  %cmp15.i61 = icmp sgt i32 %startHasProperty.119.i42, -1
  br i1 %cmp15.i61, label %if.then16.i62, label %for.inc.i48

if.then16.i62:                                    ; preds = %if.else.i60
  %sub.i63 = add nsw i32 %ch.020.i41, -1
  %call17.i64 = tail call noundef nonnull align 8 dereferenceable(200) ptr @_ZN6icu_7510UnicodeSet3addEii(ptr noundef nonnull align 8 dereferenceable(200) %this, i32 noundef %startHasProperty.119.i42, i32 noundef %sub.i63)
  br label %for.inc.i48

for.inc.i48:                                      ; preds = %if.then16.i62, %if.else.i60, %if.then11.i45
  %startHasProperty.2.i49 = phi i32 [ -1, %if.then16.i62 ], [ %startHasProperty.119.i42, %if.else.i60 ], [ %spec.select.i47, %if.then11.i45 ]
  %inc.i50 = add i32 %ch.020.i41, 1
  %exitcond.not.i51 = icmp eq i32 %ch.020.i41, %call5.i38
  br i1 %exitcond.not.i51, label %for.inc20.i52, label %for.body8.i40, !llvm.loop !10

for.inc20.i52:                                    ; preds = %for.inc.i48, %for.body.i34
  %startHasProperty.1.lcssa.i53 = phi i32 [ %startHasProperty.023.i35, %for.body.i34 ], [ %startHasProperty.2.i49, %for.inc.i48 ]
  %inc21.i54 = add nuw nsw i32 %j.022.i36, 1
  %exitcond25.not.i55 = icmp eq i32 %inc21.i54, %call3.i26
  br i1 %exitcond25.not.i55, label %for.end22.i56, label %for.body.i34, !llvm.loop !11

for.end22.i56:                                    ; preds = %for.inc20.i52
  %cmp23.i57 = icmp sgt i32 %startHasProperty.1.lcssa.i53, -1
  br i1 %cmp23.i57, label %if.then24.i58, label %if.end26.i28

if.then24.i58:                                    ; preds = %for.end22.i56
  %call25.i59 = tail call noundef nonnull align 8 dereferenceable(200) ptr @_ZN6icu_7510UnicodeSet3addEii(ptr noundef nonnull align 8 dereferenceable(200) %this, i32 noundef %startHasProperty.1.lcssa.i53, i32 noundef 1114111)
  br label %if.end26.i28

if.end26.i28:                                     ; preds = %if.then24.i58, %for.end22.i56, %if.end.i24
  %fFlags.i.i29 = getelementptr inbounds i8, ptr %this, i64 32
  %8 = load i8, ptr %fFlags.i.i29, align 8
  %9 = and i8 %8, 1
  %tobool28.not.i30 = icmp eq i8 %9, 0
  %10 = load i32, ptr %ec, align 4
  %cmp.i16.i31 = icmp sgt i32 %10, 0
  %or.cond.i32 = select i1 %tobool28.not.i30, i1 true, i1 %cmp.i16.i31
  br i1 %or.cond.i32, label %return, label %if.then31.i33

if.then31.i33:                                    ; preds = %if.end26.i28
  store i32 7, ptr %ec, align 4
  br label %return

if.else10:                                        ; preds = %if.end
  %or.cond = icmp ult i32 %prop, 75
  br i1 %or.cond, label %if.then13, label %if.else33

if.then13:                                        ; preds = %if.else10
  %or.cond1 = icmp ult i32 %value, 2
  br i1 %or.cond1, label %if.then17, label %if.else30

if.then17:                                        ; preds = %if.then13
  %call18 = tail call ptr @u_getBinaryPropertySet_75(i32 noundef %prop, ptr noundef nonnull %ec)
  %11 = load i32, ptr %ec, align 4
  %cmp.i66 = icmp slt i32 %11, 1
  br i1 %cmp.i66, label %if.end22, label %return

if.end22:                                         ; preds = %if.then17
  %call24 = tail call noundef nonnull align 8 dereferenceable(200) ptr @_ZN6icu_7510UnicodeSet8copyFromERKS0_a(ptr noundef nonnull align 8 dereferenceable(200) %this, ptr noundef nonnull align 8 dereferenceable(200) %call18, i8 noundef signext 1)
  %cmp25 = icmp eq i32 %value, 0
  br i1 %cmp25, label %if.then26, label %return

if.then26:                                        ; preds = %if.end22
  %call27 = tail call noundef nonnull align 8 dereferenceable(200) ptr @_ZN6icu_7510UnicodeSet10complementEv(ptr noundef nonnull align 8 dereferenceable(200) %this)
  %call28 = tail call noundef nonnull align 8 dereferenceable(200) ptr @_ZN6icu_7510UnicodeSet16removeAllStringsEv(ptr noundef nonnull align 8 dereferenceable(200) %call27)
  br label %return

if.else30:                                        ; preds = %if.then13
  %call31 = tail call noundef nonnull align 8 dereferenceable(200) ptr @_ZN6icu_7510UnicodeSet5clearEv(ptr noundef nonnull align 8 dereferenceable(200) %this)
  br label %return

if.else33:                                        ; preds = %if.else10
  %12 = add i32 %prop, -4096
  %or.cond2 = icmp ult i32 %12, 25
  br i1 %or.cond2, label %if.then37, label %if.else42

if.then37:                                        ; preds = %if.else33
  %call39 = tail call noundef ptr @_ZN6icu_7519CharacterProperties24getInclusionsForPropertyE9UPropertyR10UErrorCode(i32 noundef %prop, ptr noundef nonnull align 4 dereferenceable(4) %ec)
  store i32 %prop, ptr %c, align 4
  %value41 = getelementptr inbounds i8, ptr %c, i64 4
  store i32 %value, ptr %value41, align 4
  call void @_ZN6icu_7510UnicodeSet11applyFilterEPFaiPvES1_PKS0_R10UErrorCode(ptr noundef nonnull align 8 dereferenceable(200) %this, ptr noundef nonnull @_ZN6icu_7512_GLOBAL__N_117intPropertyFilterEiPv, ptr noundef nonnull %c, ptr noundef %call39, ptr noundef nonnull align 4 dereferenceable(4) %ec)
  br label %return

if.else42:                                        ; preds = %if.else33
  store i32 1, ptr %ec, align 4
  br label %return

return:                                           ; preds = %if.then31.i33, %if.end26.i28, %if.then7, %if.then31.i, %if.end26.i, %if.then4, %if.end22, %if.then26, %if.else30, %if.else42, %if.then37, %if.then17, %entry, %lor.lhs.false
  ret ptr %this
}